; Function Attrs: mustprogress nofree norecurse nosync nounwind willreturn memory(read, inaccessiblemem: none) uwtable
define noundef ptr @_ZNK19OpenColorIO_v2_5dev10ColorSpace11getCategoryEi(ptr noundef nonnull readonly align 8 captures(none) dereferenceable(8) %0, i32 noundef %1) local_unnamed_addr #4 align 2 {
  %3 = icmp slt i32 %1, 0
  br i1 %3, label %_ZNK19OpenColorIO_v2_5dev13TokensManager8getTokenEi.exit, label %4

4:                                                ; preds = %2
  %5 = load ptr, ptr %0, align 8, !tbaa !52
  %6 = getelementptr inbounds nuw i8, ptr %5, i64 272
  %7 = getelementptr inbounds nuw i8, ptr %5, i64 280
  %8 = load ptr, ptr %7, align 8, !tbaa !56
  %9 = load ptr, ptr %6, align 8, !tbaa !55
  %10 = ptrtoint ptr %8 to i64
  %11 = ptrtoint ptr %9 to i64
  %12 = sub i64 %10, %11
  %13 = lshr exact i64 %12, 5
  %14 = trunc i64 %13 to i32
  %.not.i = icmp slt i32 %1, %14
  br i1 %.not.i, label %15, label %_ZNK19OpenColorIO_v2_5dev13TokensManager8getTokenEi.exit

15:                                               ; preds = %4
  %16 = zext nneg i32 %1 to i64
  %17 = getelementptr inbounds nuw %"class.std::__cxx11::basic_string", ptr %9, i64 %16
  %18 = load ptr, ptr %17, align 8, !tbaa !57
  br label %_ZNK19OpenColorIO_v2_5dev13TokensManager8getTokenEi.exit

_ZNK19OpenColorIO_v2_5dev13TokensManager8getTokenEi.exit: ; preds = %2, %4, %15
  %.0.i = phi ptr [ %18, %15 ], [ null, %4 ], [ null, %2 ]
  ret ptr %.0.i
}